; Function Attrs: mustprogress ssp uwtable
define void @_ZN6open3d9pipelines9color_map17ImageWarpingFieldC2Eiii(ptr noundef nonnull align 8 captures(none) dereferenceable(40) initializes((0, 40)) %0, i32 noundef %1, i32 noundef %2, i32 noundef %3) unnamed_addr #1 align 2 personality ptr @__gxx_personality_v0 {
  store ptr getelementptr inbounds nuw inrange(-16, 40) (i8, ptr @_ZTVN6open3d9pipelines9color_map17ImageWarpingFieldE, i64 16), ptr %0, align 8, !tbaa !4
  %5 = getelementptr inbounds nuw i8, ptr %0, i64 8
  tail call void @llvm.memset.p0.i64(ptr noundef nonnull align 8 dereferenceable(16) %5, i8 0, i64 16, i1 false)
  invoke void @_ZN6open3d9pipelines9color_map17ImageWarpingField23InitializeWarpingFieldsEiii(ptr noundef nonnull align 8 dereferenceable(40) %0, i32 noundef %1, i32 noundef %2, i32 noundef %3)
          to label %6 unwind label %7

6:                                                ; preds = %4
  ret void

7:                                                ; preds = %4
  %8 = landingpad { ptr, i32 }
          cleanup
  %9 = load ptr, ptr %5, align 8, !tbaa !7
  tail call void @free(ptr noundef %9) #21
  resume { ptr, i32 } %8
}